; Function Attrs: mustprogress null_pointer_is_valid sspstrong uwtable
define void @_ZN23CapturePreferencesFrame13updateWidgetsEv(ptr noundef readonly align 8 captures(none) dereferenceable_or_null(112) %0) local_unnamed_addr #0 align 2 {
  %2 = getelementptr inbounds nuw i8, ptr %0, i64 40
  %3 = load ptr, ptr %2, align 8
  %4 = getelementptr inbounds nuw i8, ptr %3, i64 104
  %5 = load ptr, ptr %4, align 8
  %6 = getelementptr inbounds nuw i8, ptr %0, i64 96
  %7 = load ptr, ptr %6, align 8
  %8 = tail call zeroext i1 @prefs_get_bool_value(ptr noundef %7, i32 noundef 1)
  tail call void @_ZN15QAbstractButton10setCheckedEb(ptr noundef align 8 dereferenceable_or_null(40) %5, i1 noundef zeroext %8)
  %9 = load ptr, ptr %2, align 8
  %10 = getelementptr inbounds nuw i8, ptr %9, i64 112
  %11 = load ptr, ptr %10, align 8
  %12 = getelementptr inbounds nuw i8, ptr %0, i64 104
  %13 = load ptr, ptr %12, align 8
  %14 = tail call zeroext i1 @prefs_get_bool_value(ptr noundef %13, i32 noundef 1)
  tail call void @_ZN15QAbstractButton10setCheckedEb(ptr noundef align 8 dereferenceable_or_null(40) %11, i1 noundef zeroext %14)
  ret void
}